target datalayout = "e-m:e-p270:32:32-p271:32:32-p272:64:64-i64:64-i128:128-f80:128-n8:16:32:64-S128"
target triple = "x86_64-pc-linux-gnu"

%"class.std::__cxx11::basic_string" = type { %"struct.std::__cxx11::basic_string<char>::_Alloc_hider", i64, %union.anon.0 }
%"struct.std::__cxx11::basic_string<char>::_Alloc_hider" = type { ptr }
%union.anon.0 = type { i64, [8 x i8] }
%"class.OpenImageIO::v3_1_0::OpenEXRInputStream" = type { %"class.OpenImageIO_v3_1_0_Imf__3_2_4::IStream", ptr }
%"class.OpenImageIO_v3_1_0_Imf__3_2_4::IStream" = type { ptr, %"class.std::__cxx11::basic_string" }
%"class.OpenImageIO::v3_1_0::Filesystem::IOProxy" = type { ptr, %"class.std::__cxx11::basic_string", i64, i32, %"class.std::__cxx11::basic_string" }

@.str.36 = private unnamed_addr constant [1 x i8] zeroinitializer, align 1
@_ZTISt9exception = external constant ptr
@.str.150 = private unnamed_addr constant [19 x i8] c"File input failed.\00", align 1
@_ZTIN7Iex_3_25IoExcE = external constant ptr

; Function Attrs: mustprogress uwtable
define linkonce_odr hidden void @_ZN11OpenImageIO6v3_1_018OpenEXRInputStreamC2EPKcPNS0_10Filesystem7IOProxyE(ptr noundef nonnull align 8 dereferenceable(48) %0, ptr noundef %1, ptr noundef %2) unnamed_addr #8 comdat align 2 personality ptr @__gxx_personality_v0 {
  %4 = alloca ptr, align 8
  %5 = alloca ptr, align 8
  %6 = alloca ptr, align 8
  %7 = alloca ptr, align 8
  %8 = alloca i32, align 4
  store ptr %0, ptr %4, align 8, !tbaa !127
  store ptr %1, ptr %5, align 8, !tbaa !12
  store ptr %2, ptr %6, align 8, !tbaa !119
  %9 = load ptr, ptr %4, align 8
  %10 = load ptr, ptr %5, align 8, !tbaa !12
  call void @_ZN29OpenImageIO_v3_1_0_Imf__3_2_47IStreamC2EPKc(ptr noundef nonnull align 8 dereferenceable(40) %9, ptr noundef %10)
  store ptr getelementptr inbounds inrange(-16, 64) ({ [10 x ptr] }, ptr @_ZTVN11OpenImageIO6v3_1_018OpenEXRInputStreamE, i32 0, i32 0, i32 2), ptr %9, align 8, !tbaa !61
  %11 = getelementptr inbounds nuw %"class.OpenImageIO::v3_1_0::OpenEXRInputStream", ptr %9, i32 0, i32 1
  %12 = load ptr, ptr %6, align 8, !tbaa !119
  store ptr %12, ptr %11, align 8, !tbaa !128
  %13 = load ptr, ptr %6, align 8, !tbaa !119
  %14 = icmp ne ptr %13, null
  br i1 %14, label %15, label %19

15:                                               ; preds = %3
  %16 = load ptr, ptr %6, align 8, !tbaa !119
  %17 = call noundef i32 @_ZNK11OpenImageIO6v3_1_010Filesystem7IOProxy4modeEv(ptr noundef nonnull align 8 dereferenceable(88) %16)
  %18 = icmp ne i32 %17, 114
  br i1 %18, label %19, label %30

19:                                               ; preds = %15, %3
  %20 = call ptr @__cxa_allocate_exception(i64 72) #5
  invoke void @_ZN7Iex_3_25IoExcC1EPKc(ptr noundef nonnull align 8 dereferenceable(72) %20, ptr noundef @.str.150)
          to label %21 unwind label %22

21:                                               ; preds = %19
  invoke void @__cxa_throw(ptr %20, ptr @_ZTIN7Iex_3_25IoExcE, ptr @_ZN7Iex_3_25IoExcD1Ev) #26
          to label %37 unwind label %26

22:                                               ; preds = %19
  %23 = landingpad { ptr, i32 }
          cleanup
  %24 = extractvalue { ptr, i32 } %23, 0
  store ptr %24, ptr %7, align 8
  %25 = extractvalue { ptr, i32 } %23, 1
  store i32 %25, ptr %8, align 4
  call void @__cxa_free_exception(ptr %20) #5
  br label %31

26:                                               ; preds = %21
  %27 = landingpad { ptr, i32 }
          cleanup
  %28 = extractvalue { ptr, i32 } %27, 0
  store ptr %28, ptr %7, align 8
  %29 = extractvalue { ptr, i32 } %27, 1
  store i32 %29, ptr %8, align 4
  br label %31

30:                                               ; preds = %15
  ret void

31:                                               ; preds = %26, %22
  call void @_ZN29OpenImageIO_v3_1_0_Imf__3_2_47IStreamD2Ev(ptr noundef nonnull align 8 dereferenceable(40) %9) #5
  br label %32

32:                                               ; preds = %31
  %33 = load ptr, ptr %7, align 8
  %34 = load i32, ptr %8, align 4
  %35 = insertvalue { ptr, i32 } poison, ptr %33, 0
  %36 = insertvalue { ptr, i32 } %35, i32 %34, 1
  resume { ptr, i32 } %36

37:                                               ; preds = %21
  unreachable
}

; Function Attrs: mustprogress nounwind uwtable
define linkonce_odr noundef i32 @_ZNK11OpenImageIO6v3_1_010Filesystem7IOProxy4modeEv(ptr noundef nonnull align 8 dereferenceable(88) %0) #7 comdat align 2 {
  %2 = alloca ptr, align 8
  store ptr %0, ptr %2, align 8, !tbaa !119
  %3 = load ptr, ptr %2, align 8
  %4 = getelementptr inbounds nuw %"class.OpenImageIO::v3_1_0::Filesystem::IOProxy", ptr %3, i32 0, i32 3
  %5 = load i32, ptr %4, align 8, !tbaa !122
  ret i32 %5
}

; Function Attrs: mustprogress uwtable
define hidden noundef zeroext i1 @_ZNK11OpenImageIO6v3_1_012OpenEXRInput10valid_fileEPNS0_10Filesystem7IOProxyE(ptr noundef nonnull align 8 dereferenceable(320) %0, ptr noundef %1) unnamed_addr #8 align 2 personality ptr @__gxx_personality_v0 {
  %3 = alloca i1, align 1
  %4 = alloca ptr, align 8
  %5 = alloca ptr, align 8
  %6 = alloca %"class.OpenImageIO::v3_1_0::OpenEXRInputStream", align 8
  %7 = alloca ptr, align 8
  %8 = alloca i32, align 4
  %9 = alloca ptr, align 8
  store ptr %0, ptr %4, align 8, !tbaa !59
  store ptr %1, ptr %5, align 8, !tbaa !119
  %10 = load ptr, ptr %5, align 8, !tbaa !119
  %11 = icmp ne ptr %10, null
  br i1 %11, label %12, label %16

12:                                               ; preds = %2
  %13 = load ptr, ptr %5, align 8, !tbaa !119
  %14 = call noundef i32 @_ZNK11OpenImageIO6v3_1_010Filesystem7IOProxy4modeEv(ptr noundef nonnull align 8 dereferenceable(88) %13)
  %15 = icmp ne i32 %14, 114
  br i1 %15, label %16, label %17

16:                                               ; preds = %12, %2
  store i1 false, ptr %3, align 1
  br label %39

17:                                               ; preds = %12
  call void @llvm.lifetime.start.p0(i64 48, ptr %6) #5
  %18 = load ptr, ptr %5, align 8, !tbaa !119
  invoke void @_ZN11OpenImageIO6v3_1_018OpenEXRInputStreamC2EPKcPNS0_10Filesystem7IOProxyE(ptr noundef nonnull align 8 dereferenceable(48) %6, ptr noundef @.str.36, ptr noundef %18)
          to label %19 unwind label %22

19:                                               ; preds = %17
  %20 = invoke noundef zeroext i1 @_ZN29OpenImageIO_v3_1_0_Imf__3_2_413isOpenExrFileERNS_7IStreamE(ptr noundef nonnull align 8 dereferenceable(40) %6)
          to label %21 unwind label %26

21:                                               ; preds = %19
  store i1 %20, ptr %3, align 1
  call void @_ZN29OpenImageIO_v3_1_0_Imf__3_2_47IStreamD2Ev(ptr noundef nonnull align 8 dereferenceable(48) %6) #5
  call void @llvm.lifetime.end.p0(i64 48, ptr %6) #5
  br label %39

22:                                               ; preds = %17
  %23 = landingpad { ptr, i32 }
          cleanup
          catch ptr @_ZTISt9exception
  %24 = extractvalue { ptr, i32 } %23, 0
  store ptr %24, ptr %7, align 8
  %25 = extractvalue { ptr, i32 } %23, 1
  store i32 %25, ptr %8, align 4
  br label %30

26:                                               ; preds = %19
  %27 = landingpad { ptr, i32 }
          cleanup
          catch ptr @_ZTISt9exception
  %28 = extractvalue { ptr, i32 } %27, 0
  store ptr %28, ptr %7, align 8
  %29 = extractvalue { ptr, i32 } %27, 1
  store i32 %29, ptr %8, align 4
  call void @_ZN29OpenImageIO_v3_1_0_Imf__3_2_47IStreamD2Ev(ptr noundef nonnull align 8 dereferenceable(48) %6) #5
  br label %30

30:                                               ; preds = %26, %22
  call void @llvm.lifetime.end.p0(i64 48, ptr %6) #5
  br label %31

31:                                               ; preds = %30
  %32 = load i32, ptr %8, align 4
  %33 = call i32 @llvm.eh.typeid.for.p0(ptr @_ZTISt9exception) #5
  %34 = icmp eq i32 %32, %33
  br i1 %34, label %35, label %41

35:                                               ; preds = %31
  call void @llvm.lifetime.start.p0(i64 8, ptr %9) #5
  %36 = load ptr, ptr %7, align 8
  %37 = call ptr @__cxa_begin_catch(ptr %36) #5
  store ptr %37, ptr %9, align 8
  store i1 false, ptr %3, align 1
  call void @__cxa_end_catch()
  call void @llvm.lifetime.end.p0(i64 8, ptr %9) #5
  br label %39

38:                                               ; No predecessors!
  unreachable

39:                                               ; preds = %35, %21, %16
  %40 = load i1, ptr %3, align 1
  ret i1 %40

41:                                               ; preds = %31
  %42 = load ptr, ptr %7, align 8
  %43 = load i32, ptr %8, align 4
  %44 = insertvalue { ptr, i32 } poison, ptr %42, 0
  %45 = insertvalue { ptr, i32 } %44, i32 %43, 1
  resume { ptr, i32 } %45
}