; Function Attrs: mustprogress uwtable
define hidden noundef zeroext i1 @_ZNK11OpenImageIO6v3_1_012OpenEXRInput10valid_fileEPNS0_10Filesystem7IOProxyE(ptr nonnull readnone align 8 captures(none) %0, ptr noundef %1) unnamed_addr #6 align 2 personality ptr @__gxx_personality_v0 {
  %3 = alloca %"class.OpenImageIO::v3_1_0::OpenEXRInputStream", align 8
  %.not = icmp eq ptr %1, null
  br i1 %.not, label %30, label %4

4:                                                ; preds = %2
  %5 = getelementptr inbounds nuw i8, ptr %1, i64 48
  %6 = load i32, ptr %5, align 8, !tbaa !117
  %.not10 = icmp eq i32 %6, 114
  br i1 %.not10, label %7, label %30

7:                                                ; preds = %4
  call void @llvm.lifetime.start.p0(i64 48, ptr nonnull %3) #32
  invoke void @_ZN29OpenImageIO_v3_1_0_Imf__3_2_47IStreamC2EPKc(ptr noundef nonnull align 8 dereferenceable(48) %3, ptr noundef nonnull @.str.36)
          to label %8 unwind label %22

8:                                                ; preds = %7
  store ptr getelementptr inbounds nuw inrange(-16, 64) (i8, ptr @_ZTVN11OpenImageIO6v3_1_018OpenEXRInputStreamE, i64 16), ptr %3, align 8, !tbaa !17
  %9 = getelementptr inbounds nuw i8, ptr %3, i64 40
  store ptr %1, ptr %9, align 8, !tbaa !120
  %10 = load i32, ptr %5, align 8, !tbaa !117
  %.not8.i = icmp eq i32 %10, 114
  br i1 %.not8.i, label %_ZN11OpenImageIO6v3_1_018OpenEXRInputStreamC2EPKcPNS0_10Filesystem7IOProxyE.exit, label %11

11:                                               ; preds = %8
  %12 = call ptr @__cxa_allocate_exception(i64 72) #32
  invoke void @_ZN7Iex_3_25IoExcC1EPKc(ptr noundef nonnull align 8 dereferenceable(72) %12, ptr noundef nonnull @.str.150)
          to label %13 unwind label %14

13:                                               ; preds = %11
  invoke void @__cxa_throw(ptr nonnull %12, ptr nonnull @_ZTIN7Iex_3_25IoExcE, ptr nonnull @_ZN7Iex_3_25IoExcD1Ev) #34
          to label %19 unwind label %16

14:                                               ; preds = %11
  %15 = landingpad { ptr, i32 }
          cleanup
          catch ptr @_ZTISt9exception
  call void @__cxa_free_exception(ptr nonnull %12) #32
  br label %18

16:                                               ; preds = %13
  %17 = landingpad { ptr, i32 }
          cleanup
          catch ptr @_ZTISt9exception
  br label %18

18:                                               ; preds = %16, %14
  %.pn.i = phi { ptr, i32 } [ %17, %16 ], [ %15, %14 ]
  call void @_ZN29OpenImageIO_v3_1_0_Imf__3_2_47IStreamD2Ev(ptr noundef nonnull align 8 dereferenceable(48) %3) #32
  br label %.body

19:                                               ; preds = %13
  unreachable

_ZN11OpenImageIO6v3_1_018OpenEXRInputStreamC2EPKcPNS0_10Filesystem7IOProxyE.exit: ; preds = %8
  %20 = invoke noundef zeroext i1 @_ZN29OpenImageIO_v3_1_0_Imf__3_2_413isOpenExrFileERNS_7IStreamE(ptr noundef nonnull align 8 dereferenceable(40) %3)
          to label %21 unwind label %24

21:                                               ; preds = %_ZN11OpenImageIO6v3_1_018OpenEXRInputStreamC2EPKcPNS0_10Filesystem7IOProxyE.exit
  call void @_ZN29OpenImageIO_v3_1_0_Imf__3_2_47IStreamD2Ev(ptr noundef nonnull align 8 dereferenceable(48) %3) #32
  call void @llvm.lifetime.end.p0(i64 48, ptr nonnull %3) #32
  br label %30

22:                                               ; preds = %7
  %23 = landingpad { ptr, i32 }
          cleanup
          catch ptr @_ZTISt9exception
  br label %.body

24:                                               ; preds = %_ZN11OpenImageIO6v3_1_018OpenEXRInputStreamC2EPKcPNS0_10Filesystem7IOProxyE.exit
  %25 = landingpad { ptr, i32 }
          cleanup
          catch ptr @_ZTISt9exception
  call void @_ZN29OpenImageIO_v3_1_0_Imf__3_2_47IStreamD2Ev(ptr noundef nonnull align 8 dereferenceable(48) %3) #32
  br label %.body

.body:                                            ; preds = %22, %18, %24
  %.pn = phi { ptr, i32 } [ %25, %24 ], [ %23, %22 ], [ %.pn.i, %18 ]
  %.07 = extractvalue { ptr, i32 } %.pn, 1
  call void @llvm.lifetime.end.p0(i64 48, ptr nonnull %3) #32
  %26 = call i32 @llvm.eh.typeid.for.p0(ptr nonnull @_ZTISt9exception) #32
  %27 = icmp eq i32 %.07, %26
  br i1 %27, label %28, label %31

28:                                               ; preds = %.body
  %.08 = extractvalue { ptr, i32 } %.pn, 0
  %29 = call ptr @__cxa_begin_catch(ptr %.08) #32
  call void @__cxa_end_catch()
  br label %30

30:                                               ; preds = %2, %4, %28, %21
  %.0 = phi i1 [ %20, %21 ], [ false, %28 ], [ false, %4 ], [ false, %2 ]
  ret i1 %.0

31:                                               ; preds = %.body
  resume { ptr, i32 } %.pn
}